target datalayout = "e-m:e-p270:32:32-p271:32:32-p272:64:64-i64:64-i128:128-f80:128-n8:16:32:64-S128"
target triple = "x86_64-pc-linux-gnu"

%struct.LogicalRepCtxStruct = type { i32, i32, i64, [0 x %struct.LogicalRepWorker] }
%struct.LogicalRepWorker = type { i32, i64, i8, i16, ptr, i32, i32, i32, i32, i8, i64, i8, ptr, i32, i8, i64, i64, i64, i64, i64 }

@LogicalRepCtx = internal global ptr null, align 8
@on_commit_launcher_wakeup = internal global i8 0, align 1

; Function Attrs: nounwind uwtable
define internal void @ApplyLauncherWakeup() #0 {
  %1 = load ptr, ptr @LogicalRepCtx, align 8
  %2 = getelementptr inbounds nuw %struct.LogicalRepCtxStruct, ptr %1, i32 0, i32 0
  %3 = load i32, ptr %2, align 8
  %4 = icmp ne i32 %3, 0
  br i1 %4, label %5, label %10

5:                                                ; preds = %0
  %6 = load ptr, ptr @LogicalRepCtx, align 8
  %7 = getelementptr inbounds nuw %struct.LogicalRepCtxStruct, ptr %6, i32 0, i32 0
  %8 = load i32, ptr %7, align 8
  %9 = call i32 @kill(i32 noundef %8, i32 noundef 10) #9
  br label %10

10:                                               ; preds = %5, %0
  ret void
}

; Function Attrs: nounwind uwtable
define dso_local void @AtEOXact_ApplyLauncher(i1 noundef zeroext %0) #0 {
  %2 = alloca i8, align 1
  %3 = zext i1 %0 to i8
  store i8 %3, ptr %2, align 1
  %4 = load i8, ptr %2, align 1, !range !4, !noundef !5
  %5 = trunc i8 %4 to i1
  br i1 %5, label %6, label %11

6:                                                ; preds = %1
  %7 = load i8, ptr @on_commit_launcher_wakeup, align 1, !range !4, !noundef !5
  %8 = trunc i8 %7 to i1
  br i1 %8, label %9, label %10

9:                                                ; preds = %6
  call void @ApplyLauncherWakeup()
  br label %10

10:                                               ; preds = %9, %6
  br label %11

11:                                               ; preds = %10, %1
  store i8 0, ptr @on_commit_launcher_wakeup, align 1
  ret void
}