; Function Attrs: nounwind uwtable
define dso_local void @AtEOXact_ApplyLauncher(i1 noundef zeroext %0) local_unnamed_addr #2 {
  br i1 %0, label %2, label %ApplyLauncherWakeup.exit

2:                                                ; preds = %1
  %.b1 = load i1, ptr @on_commit_launcher_wakeup, align 1
  br i1 %.b1, label %3, label %ApplyLauncherWakeup.exit

3:                                                ; preds = %2
  %4 = load ptr, ptr @LogicalRepCtx, align 8
  %5 = load i32, ptr %4, align 8
  %.not.i = icmp eq i32 %5, 0
  br i1 %.not.i, label %ApplyLauncherWakeup.exit, label %6

6:                                                ; preds = %3
  %7 = tail call i32 @kill(i32 noundef %5, i32 noundef 10) #13
  br label %ApplyLauncherWakeup.exit

ApplyLauncherWakeup.exit:                         ; preds = %6, %3, %2, %1
  store i1 false, ptr @on_commit_launcher_wakeup, align 1
  ret void
}